; Function Attrs: null_pointer_is_valid sspstrong uwtable
define internal noalias noundef ptr @dissect_fields_fbw(ptr noundef %0, ptr noundef %1, ptr noundef %2, i32 noundef %3, i32 noundef %4, ptr readnone captures(none) %5) #0 {
  %.not = icmp eq i32 %4, 12
  br i1 %.not, label %9, label %7

7:                                                ; preds = %6
  %8 = tail call ptr @proto_tree_add_expert(ptr noundef %2, ptr noundef %0, ptr noundef nonnull @ei_alcap_parameter_field_bad_length, ptr noundef %1, i32 noundef %3, i32 noundef %4)
  br label %27

9:                                                ; preds = %6
  %10 = load i32, ptr @hf_alcap_fbw_br_fw, align 4
  %11 = tail call ptr @proto_tree_add_item(ptr noundef %2, i32 noundef %10, ptr noundef %1, i32 noundef %3, i32 noundef 3, i32 noundef 0)
  %12 = load i32, ptr @hf_alcap_fbw_br_bw, align 4
  %13 = add i32 %3, 3
  %14 = tail call ptr @proto_tree_add_item(ptr noundef %2, i32 noundef %12, ptr noundef %1, i32 noundef %13, i32 noundef 3, i32 noundef 0)
  %15 = load i32, ptr @hf_alcap_fbw_bucket_fw, align 4
  %16 = add i32 %3, 6
  %17 = tail call ptr @proto_tree_add_item(ptr noundef %2, i32 noundef %15, ptr noundef %1, i32 noundef %16, i32 noundef 2, i32 noundef 0)
  %18 = load i32, ptr @hf_alcap_fbw_bucket_bw, align 4
  %19 = add i32 %3, 8
  %20 = tail call ptr @proto_tree_add_item(ptr noundef %2, i32 noundef %18, ptr noundef %1, i32 noundef %19, i32 noundef 2, i32 noundef 0)
  %21 = load i32, ptr @hf_alcap_fbw_size_fw, align 4
  %22 = add i32 %3, 10
  %23 = tail call ptr @proto_tree_add_item(ptr noundef %2, i32 noundef %21, ptr noundef %1, i32 noundef %22, i32 noundef 1, i32 noundef 0)
  %24 = load i32, ptr @hf_alcap_fbw_size_bw, align 4
  %25 = add i32 %3, 11
  %26 = tail call ptr @proto_tree_add_item(ptr noundef %2, i32 noundef %24, ptr noundef %1, i32 noundef %25, i32 noundef 1, i32 noundef 0)
  br label %27

27:                                               ; preds = %9, %7
  ret ptr null
}